; Function Attrs: nofree norecurse nosync nounwind memory(argmem: readwrite) uwtable
define internal void @blend_linearlight_8bit(ptr noundef readonly captures(none) %0, i64 noundef %1, ptr noundef readonly captures(none) %2, i64 noundef %3, ptr noundef writeonly captures(none) %4, i64 noundef %5, i64 noundef %6, i64 noundef %7, ptr noundef readonly captures(none) %8, ptr readnone captures(none) %9) #6 {
  %11 = getelementptr inbounds nuw i8, ptr %8, i64 8
  %12 = load double, ptr %11, align 8, !tbaa !70
  %13 = fptrunc nsz double %12 to float
  %14 = icmp sgt i64 %7, 0
  %15 = icmp sgt i64 %6, 0
  %or.cond = and i1 %14, %15
  br i1 %or.cond, label %.preheader.us, label %._crit_edge46

.preheader.us:                                    ; preds = %10, %._crit_edge.us
  %indvars.iv50 = phi i64 [ %indvars.iv.next51, %._crit_edge.us ], [ 0, %10 ]
  %.03644.us = phi ptr [ %38, %._crit_edge.us ], [ %4, %10 ]
  %.03743.us = phi ptr [ %40, %._crit_edge.us ], [ %2, %10 ]
  %.03842.us = phi ptr [ %39, %._crit_edge.us ], [ %0, %10 ]
  br label %16

16:                                               ; preds = %.preheader.us, %16
  %indvars.iv = phi i64 [ 0, %.preheader.us ], [ %indvars.iv.next, %16 ]
  %17 = getelementptr inbounds nuw i8, ptr %.03842.us, i64 %indvars.iv
  %18 = load i8, ptr %17, align 1, !tbaa !89
  %19 = zext i8 %18 to i32
  %20 = uitofp i8 %18 to float
  %21 = getelementptr inbounds nuw i8, ptr %.03743.us, i64 %indvars.iv
  %22 = load i8, ptr %21, align 1, !tbaa !89
  %23 = zext i8 %22 to i32
  %24 = shl nuw nsw i32 %19, 1
  %25 = add nuw nsw i32 %23, -255
  %26 = add nsw i32 %25, %24
  %27 = add nsw i32 %24, -256
  %28 = add nsw i32 %27, %23
  %29 = icmp slt i8 %22, 0
  %30 = select i1 %29, i32 %28, i32 %26
  %.not.i.us = icmp ult i32 %30, 256
  %isnotneg.i.us = icmp sgt i32 %30, -1
  %31 = sext i1 %isnotneg.i.us to i32
  %.0.i.us = select i1 %.not.i.us, i32 %30, i32 %31
  %32 = and i32 %.0.i.us, 255
  %33 = sub nsw i32 %32, %19
  %34 = sitofp i32 %33 to float
  %35 = tail call nsz float @llvm.fmuladd.f32(float %34, float %13, float %20)
  %36 = fptoui float %35 to i8
  %37 = getelementptr inbounds nuw i8, ptr %.03644.us, i64 %indvars.iv
  store i8 %36, ptr %37, align 1, !tbaa !89
  %indvars.iv.next = add nuw nsw i64 %indvars.iv, 1
  %exitcond.not = icmp eq i64 %indvars.iv.next, %6
  br i1 %exitcond.not, label %._crit_edge.us, label %16, !llvm.loop !128

._crit_edge.us:                                   ; preds = %16
  %38 = getelementptr inbounds i8, ptr %.03644.us, i64 %5
  %39 = getelementptr inbounds i8, ptr %.03842.us, i64 %1
  %40 = getelementptr inbounds i8, ptr %.03743.us, i64 %3
  %indvars.iv.next51 = add nuw nsw i64 %indvars.iv50, 1
  %exitcond53.not = icmp eq i64 %indvars.iv.next51, %7
  br i1 %exitcond53.not, label %._crit_edge46, label %.preheader.us, !llvm.loop !129

._crit_edge46:                                    ; preds = %._crit_edge.us, %10
  ret void
}